target datalayout = "e-m:e-p270:32:32-p271:32:32-p272:64:64-i64:64-i128:128-f80:128-n8:16:32:64-S128"
target triple = "x86_64-pc-linux-gnu"

%struct.AVFilterContext = type { ptr, ptr, ptr, ptr, ptr, i32, ptr, ptr, i32, ptr, ptr, i32, i32, ptr, ptr, ptr, ptr, i32, ptr, i32, i32 }
%struct.ShowVolumeContext = type { ptr, i32, i32, i32, double, %struct.AVRational, ptr, i32, i32, float, i32, i32, ptr, ptr, i32, i32, ptr, ptr, ptr, i32, double, [4 x i8], i32, ptr, ptr, ptr }
%struct.AVRational = type { i32, i32 }
%struct.AVFilterFormatsConfig = type { ptr, ptr, ptr, ptr, ptr }
%struct.AVFilterLink = type { ptr, ptr, ptr, ptr, i32, i32, i32, i32, %struct.AVRational, i32, i32, i32, %struct.AVChannelLayout, %struct.AVRational, ptr, i32, %struct.AVFilterFormatsConfig, %struct.AVFilterFormatsConfig }
%struct.AVChannelLayout = type { i32, i32, %union.anon.1, ptr }
%union.anon.1 = type { i64 }

; Function Attrs: inlinehint nounwind uwtable
define internal double @av_q2d(i64 %0) #5 {
  %2 = alloca %struct.AVRational, align 4
  store i64 %0, ptr %2, align 4
  %3 = getelementptr inbounds nuw %struct.AVRational, ptr %2, i32 0, i32 0
  %4 = load i32, ptr %3, align 4, !tbaa !74
  %5 = sitofp i32 %4 to double
  %6 = getelementptr inbounds nuw %struct.AVRational, ptr %2, i32 0, i32 1
  %7 = load i32, ptr %6, align 4, !tbaa !75
  %8 = sitofp i32 %7 to double
  %9 = fdiv nsz double %5, %8
  ret double %9
}

; Function Attrs: nounwind uwtable
define internal i32 @config_input(ptr noundef %0) #1 {
  %2 = alloca i32, align 4
  %3 = alloca ptr, align 8
  %4 = alloca ptr, align 8
  %5 = alloca ptr, align 8
  %6 = alloca i32, align 4
  store ptr %0, ptr %3, align 8, !tbaa !42
  call void @llvm.lifetime.start.p0(i64 8, ptr %4) #12
  %7 = load ptr, ptr %3, align 8, !tbaa !42
  %8 = getelementptr inbounds nuw %struct.AVFilterLink, ptr %7, i32 0, i32 2
  %9 = load ptr, ptr %8, align 8, !tbaa !49
  store ptr %9, ptr %4, align 8, !tbaa !4
  call void @llvm.lifetime.start.p0(i64 8, ptr %5) #12
  %10 = load ptr, ptr %4, align 8, !tbaa !4
  %11 = getelementptr inbounds nuw %struct.AVFilterContext, ptr %10, i32 0, i32 9
  %12 = load ptr, ptr %11, align 8, !tbaa !9
  store ptr %12, ptr %5, align 8, !tbaa !22
  %13 = load ptr, ptr %3, align 8, !tbaa !42
  %14 = getelementptr inbounds nuw %struct.AVFilterLink, ptr %13, i32 0, i32 11
  %15 = load i32, ptr %14, align 8, !tbaa !55
  %16 = sext i32 %15 to i64
  %17 = load ptr, ptr %5, align 8, !tbaa !22
  %18 = getelementptr inbounds nuw %struct.ShowVolumeContext, ptr %17, i32 0, i32 5
  %19 = getelementptr inbounds nuw %struct.AVRational, ptr %18, i32 0, i32 1
  %20 = load i32, ptr %19, align 4, !tbaa !56
  %21 = sext i32 %20 to i64
  %22 = load ptr, ptr %5, align 8, !tbaa !22
  %23 = getelementptr inbounds nuw %struct.ShowVolumeContext, ptr %22, i32 0, i32 5
  %24 = getelementptr inbounds nuw %struct.AVRational, ptr %23, i32 0, i32 0
  %25 = load i32, ptr %24, align 8, !tbaa !57
  %26 = sext i32 %25 to i64
  %27 = call i64 @av_rescale(i64 noundef %16, i64 noundef %21, i64 noundef %26) #13
  %28 = icmp sgt i64 1, %27
  br i1 %28, label %29, label %30

29:                                               ; preds = %1
  br label %46

30:                                               ; preds = %1
  %31 = load ptr, ptr %3, align 8, !tbaa !42
  %32 = getelementptr inbounds nuw %struct.AVFilterLink, ptr %31, i32 0, i32 11
  %33 = load i32, ptr %32, align 8, !tbaa !55
  %34 = sext i32 %33 to i64
  %35 = load ptr, ptr %5, align 8, !tbaa !22
  %36 = getelementptr inbounds nuw %struct.ShowVolumeContext, ptr %35, i32 0, i32 5
  %37 = getelementptr inbounds nuw %struct.AVRational, ptr %36, i32 0, i32 1
  %38 = load i32, ptr %37, align 4, !tbaa !56
  %39 = sext i32 %38 to i64
  %40 = load ptr, ptr %5, align 8, !tbaa !22
  %41 = getelementptr inbounds nuw %struct.ShowVolumeContext, ptr %40, i32 0, i32 5
  %42 = getelementptr inbounds nuw %struct.AVRational, ptr %41, i32 0, i32 0
  %43 = load i32, ptr %42, align 8, !tbaa !57
  %44 = sext i32 %43 to i64
  %45 = call i64 @av_rescale(i64 noundef %34, i64 noundef %39, i64 noundef %44) #13
  br label %46

46:                                               ; preds = %30, %29
  %47 = phi i64 [ 1, %29 ], [ %45, %30 ]
  %48 = trunc i64 %47 to i32
  %49 = load ptr, ptr %5, align 8, !tbaa !22
  %50 = getelementptr inbounds nuw %struct.ShowVolumeContext, ptr %49, i32 0, i32 11
  store i32 %48, ptr %50, align 8, !tbaa !46
  %51 = load ptr, ptr %3, align 8, !tbaa !42
  %52 = getelementptr inbounds nuw %struct.AVFilterLink, ptr %51, i32 0, i32 12
  %53 = getelementptr inbounds nuw %struct.AVChannelLayout, ptr %52, i32 0, i32 1
  %54 = load i32, ptr %53, align 4, !tbaa !58
  %55 = mul nsw i32 %54, 3
  %56 = sext i32 %55 to i64
  %57 = call noalias ptr @av_calloc(i64 noundef %56, i64 noundef 8)
  %58 = load ptr, ptr %5, align 8, !tbaa !22
  %59 = getelementptr inbounds nuw %struct.ShowVolumeContext, ptr %58, i32 0, i32 16
  store ptr %57, ptr %59, align 8, !tbaa !59
  %60 = load ptr, ptr %5, align 8, !tbaa !22
  %61 = getelementptr inbounds nuw %struct.ShowVolumeContext, ptr %60, i32 0, i32 16
  %62 = load ptr, ptr %61, align 8, !tbaa !59
  %63 = icmp ne ptr %62, null
  br i1 %63, label %65, label %64

64:                                               ; preds = %46
  store i32 -12, ptr %2, align 4
  store i32 1, ptr %6, align 4
  br label %175

65:                                               ; preds = %46
  %66 = load ptr, ptr %5, align 8, !tbaa !22
  %67 = getelementptr inbounds nuw %struct.ShowVolumeContext, ptr %66, i32 0, i32 1
  %68 = load i32, ptr %67, align 8, !tbaa !60
  %69 = sext i32 %68 to i64
  %70 = load ptr, ptr %3, align 8, !tbaa !42
  %71 = getelementptr inbounds nuw %struct.AVFilterLink, ptr %70, i32 0, i32 12
  %72 = getelementptr inbounds nuw %struct.AVChannelLayout, ptr %71, i32 0, i32 1
  %73 = load i32, ptr %72, align 4, !tbaa !58
  %74 = sext i32 %73 to i64
  %75 = mul i64 4, %74
  %76 = call noalias ptr @av_calloc(i64 noundef %69, i64 noundef %75)
  %77 = load ptr, ptr %5, align 8, !tbaa !22
  %78 = getelementptr inbounds nuw %struct.ShowVolumeContext, ptr %77, i32 0, i32 17
  store ptr %76, ptr %78, align 8, !tbaa !61
  %79 = load ptr, ptr %5, align 8, !tbaa !22
  %80 = getelementptr inbounds nuw %struct.ShowVolumeContext, ptr %79, i32 0, i32 17
  %81 = load ptr, ptr %80, align 8, !tbaa !61
  %82 = icmp ne ptr %81, null
  br i1 %82, label %84, label %83

83:                                               ; preds = %65
  store i32 -12, ptr %2, align 4
  store i32 1, ptr %6, align 4
  br label %175

84:                                               ; preds = %65
  %85 = load ptr, ptr %3, align 8, !tbaa !42
  %86 = getelementptr inbounds nuw %struct.AVFilterLink, ptr %85, i32 0, i32 12
  %87 = getelementptr inbounds nuw %struct.AVChannelLayout, ptr %86, i32 0, i32 1
  %88 = load i32, ptr %87, align 4, !tbaa !58
  %89 = sext i32 %88 to i64
  %90 = call noalias ptr @av_calloc(i64 noundef %89, i64 noundef 4)
  %91 = load ptr, ptr %5, align 8, !tbaa !22
  %92 = getelementptr inbounds nuw %struct.ShowVolumeContext, ptr %91, i32 0, i32 18
  store ptr %90, ptr %92, align 8, !tbaa !62
  %93 = load ptr, ptr %5, align 8, !tbaa !22
  %94 = getelementptr inbounds nuw %struct.ShowVolumeContext, ptr %93, i32 0, i32 18
  %95 = load ptr, ptr %94, align 8, !tbaa !62
  %96 = icmp ne ptr %95, null
  br i1 %96, label %98, label %97

97:                                               ; preds = %84
  store i32 -12, ptr %2, align 4
  store i32 1, ptr %6, align 4
  br label %175

98:                                               ; preds = %84
  %99 = load ptr, ptr %5, align 8, !tbaa !22
  %100 = getelementptr inbounds nuw %struct.ShowVolumeContext, ptr %99, i32 0, i32 10
  %101 = load i32, ptr %100, align 4, !tbaa !63
  switch i32 %101, label %108 [
    i32 0, label %102
    i32 1, label %105
  ]

102:                                              ; preds = %98
  %103 = load ptr, ptr %5, align 8, !tbaa !22
  %104 = getelementptr inbounds nuw %struct.ShowVolumeContext, ptr %103, i32 0, i32 25
  store ptr @find_peak, ptr %104, align 8, !tbaa !64
  br label %109

105:                                              ; preds = %98
  %106 = load ptr, ptr %5, align 8, !tbaa !22
  %107 = getelementptr inbounds nuw %struct.ShowVolumeContext, ptr %106, i32 0, i32 25
  store ptr @find_rms, ptr %107, align 8, !tbaa !64
  br label %109

108:                                              ; preds = %98
  store i32 -558323010, ptr %2, align 4
  store i32 1, ptr %6, align 4
  br label %175

109:                                              ; preds = %105, %102
  %110 = load ptr, ptr %5, align 8, !tbaa !22
  %111 = getelementptr inbounds nuw %struct.ShowVolumeContext, ptr %110, i32 0, i32 20
  %112 = load double, ptr %111, align 8, !tbaa !65
  %113 = fcmp nsz ogt double %112, 0.000000e+00
  br i1 %113, label %114, label %174

114:                                              ; preds = %109
  %115 = load ptr, ptr %5, align 8, !tbaa !22
  %116 = getelementptr inbounds nuw %struct.ShowVolumeContext, ptr %115, i32 0, i32 5
  %117 = load i64, ptr %116, align 8
  %118 = call nsz double @av_q2d(i64 %117)
  %119 = load ptr, ptr %5, align 8, !tbaa !22
  %120 = getelementptr inbounds nuw %struct.ShowVolumeContext, ptr %119, i32 0, i32 20
  %121 = load double, ptr %120, align 8, !tbaa !65
  %122 = fmul nsz double %118, %121
  %123 = fcmp nsz ogt double %122, 1.000000e+00
  br i1 %123, label %124, label %133

124:                                              ; preds = %114
  %125 = load ptr, ptr %5, align 8, !tbaa !22
  %126 = getelementptr inbounds nuw %struct.ShowVolumeContext, ptr %125, i32 0, i32 5
  %127 = load i64, ptr %126, align 8
  %128 = call nsz double @av_q2d(i64 %127)
  %129 = load ptr, ptr %5, align 8, !tbaa !22
  %130 = getelementptr inbounds nuw %struct.ShowVolumeContext, ptr %129, i32 0, i32 20
  %131 = load double, ptr %130, align 8, !tbaa !65
  %132 = fmul nsz double %128, %131
  br label %134

133:                                              ; preds = %114
  br label %134

134:                                              ; preds = %133, %124
  %135 = phi nsz double [ %132, %124 ], [ 1.000000e+00, %133 ]
  %136 = fptosi double %135 to i32
  %137 = load ptr, ptr %5, align 8, !tbaa !22
  %138 = getelementptr inbounds nuw %struct.ShowVolumeContext, ptr %137, i32 0, i32 22
  store i32 %136, ptr %138, align 4, !tbaa !66
  %139 = load ptr, ptr %3, align 8, !tbaa !42
  %140 = getelementptr inbounds nuw %struct.AVFilterLink, ptr %139, i32 0, i32 12
  %141 = getelementptr inbounds nuw %struct.AVChannelLayout, ptr %140, i32 0, i32 1
  %142 = load i32, ptr %141, align 4, !tbaa !58
  %143 = load ptr, ptr %5, align 8, !tbaa !22
  %144 = getelementptr inbounds nuw %struct.ShowVolumeContext, ptr %143, i32 0, i32 22
  %145 = load i32, ptr %144, align 4, !tbaa !66
  %146 = mul nsw i32 %142, %145
  %147 = sext i32 %146 to i64
  %148 = call noalias ptr @av_calloc(i64 noundef %147, i64 noundef 4)
  %149 = load ptr, ptr %5, align 8, !tbaa !22
  %150 = getelementptr inbounds nuw %struct.ShowVolumeContext, ptr %149, i32 0, i32 23
  store ptr %148, ptr %150, align 8, !tbaa !67
  %151 = load ptr, ptr %3, align 8, !tbaa !42
  %152 = getelementptr inbounds nuw %struct.AVFilterLink, ptr %151, i32 0, i32 12
  %153 = getelementptr inbounds nuw %struct.AVChannelLayout, ptr %152, i32 0, i32 1
  %154 = load i32, ptr %153, align 4, !tbaa !58
  %155 = load ptr, ptr %5, align 8, !tbaa !22
  %156 = getelementptr inbounds nuw %struct.ShowVolumeContext, ptr %155, i32 0, i32 22
  %157 = load i32, ptr %156, align 4, !tbaa !66
  %158 = mul nsw i32 %154, %157
  %159 = sext i32 %158 to i64
  %160 = call noalias ptr @av_calloc(i64 noundef %159, i64 noundef 4)
  %161 = load ptr, ptr %5, align 8, !tbaa !22
  %162 = getelementptr inbounds nuw %struct.ShowVolumeContext, ptr %161, i32 0, i32 24
  store ptr %160, ptr %162, align 8, !tbaa !68
  %163 = load ptr, ptr %5, align 8, !tbaa !22
  %164 = getelementptr inbounds nuw %struct.ShowVolumeContext, ptr %163, i32 0, i32 23
  %165 = load ptr, ptr %164, align 8, !tbaa !67
  %166 = icmp ne ptr %165, null
  br i1 %166, label %167, label %172

167:                                              ; preds = %134
  %168 = load ptr, ptr %5, align 8, !tbaa !22
  %169 = getelementptr inbounds nuw %struct.ShowVolumeContext, ptr %168, i32 0, i32 24
  %170 = load ptr, ptr %169, align 8, !tbaa !68
  %171 = icmp ne ptr %170, null
  br i1 %171, label %173, label %172

172:                                              ; preds = %167, %134
  store i32 -12, ptr %2, align 4
  store i32 1, ptr %6, align 4
  br label %175

173:                                              ; preds = %167
  br label %174

174:                                              ; preds = %173, %109
  store i32 0, ptr %2, align 4
  store i32 1, ptr %6, align 4
  br label %175

175:                                              ; preds = %174, %172, %108, %97, %83, %64
  call void @llvm.lifetime.end.p0(i64 8, ptr %5) #12
  call void @llvm.lifetime.end.p0(i64 8, ptr %4) #12
  %176 = load i32, ptr %2, align 4
  ret i32 %176
}