; Function Attrs: nounwind uwtable
define internal range(i32 -558323010, 1) i32 @config_input(ptr noundef readonly captures(none) %0) #1 {
  %2 = getelementptr inbounds nuw i8, ptr %0, i64 16
  %3 = load ptr, ptr %2, align 8, !tbaa !38
  %4 = getelementptr inbounds nuw i8, ptr %3, i64 72
  %5 = load ptr, ptr %4, align 8, !tbaa !4
  %6 = getelementptr inbounds nuw i8, ptr %0, i64 64
  %7 = load i32, ptr %6, align 8, !tbaa !106
  %8 = sext i32 %7 to i64
  %9 = getelementptr inbounds nuw i8, ptr %5, i64 32
  %10 = getelementptr inbounds nuw i8, ptr %5, i64 36
  %11 = load i32, ptr %10, align 4, !tbaa !107
  %12 = sext i32 %11 to i64
  %13 = load i32, ptr %9, align 8, !tbaa !108
  %14 = sext i32 %13 to i64
  %15 = tail call i64 @av_rescale(i64 noundef %8, i64 noundef %12, i64 noundef %14) #11
  %spec.select44 = tail call i64 @llvm.smax.i64(i64 %15, i64 1)
  %spec.select = trunc i64 %spec.select44 to i32
  %16 = getelementptr inbounds nuw i8, ptr %5, i64 64
  store i32 %spec.select, ptr %16, align 8, !tbaa !37
  %17 = getelementptr inbounds nuw i8, ptr %0, i64 76
  %18 = load i32, ptr %17, align 4, !tbaa !71
  %19 = mul nsw i32 %18, 3
  %20 = sext i32 %19 to i64
  %21 = tail call noalias ptr @av_calloc(i64 noundef %20, i64 noundef 8) #10
  %22 = getelementptr inbounds nuw i8, ptr %5, i64 96
  store ptr %21, ptr %22, align 8, !tbaa !79
  %.not = icmp eq ptr %21, null
  br i1 %.not, label %69, label %23

23:                                               ; preds = %1
  %24 = getelementptr inbounds nuw i8, ptr %5, i64 8
  %25 = load i32, ptr %24, align 8, !tbaa !74
  %26 = sext i32 %25 to i64
  %27 = load i32, ptr %17, align 4, !tbaa !71
  %28 = sext i32 %27 to i64
  %29 = shl nsw i64 %28, 2
  %30 = tail call noalias ptr @av_calloc(i64 noundef %26, i64 noundef %29) #10
  %31 = getelementptr inbounds nuw i8, ptr %5, i64 104
  store ptr %30, ptr %31, align 8, !tbaa !73
  %.not37 = icmp eq ptr %30, null
  br i1 %.not37, label %69, label %32

32:                                               ; preds = %23
  %33 = load i32, ptr %17, align 4, !tbaa !71
  %34 = sext i32 %33 to i64
  %35 = tail call noalias ptr @av_calloc(i64 noundef %34, i64 noundef 4) #10
  %36 = getelementptr inbounds nuw i8, ptr %5, i64 112
  store ptr %35, ptr %36, align 8, !tbaa !77
  %.not38 = icmp eq ptr %35, null
  br i1 %.not38, label %69, label %37

37:                                               ; preds = %32
  %38 = getelementptr inbounds nuw i8, ptr %5, i64 60
  %39 = load i32, ptr %38, align 4, !tbaa !109
  switch i32 %39, label %69 [
    i32 0, label %41
    i32 1, label %40
  ]

40:                                               ; preds = %37
  br label %41

41:                                               ; preds = %37, %40
  %find_rms.sink = phi ptr [ @find_rms, %40 ], [ @find_peak, %37 ]
  %42 = getelementptr inbounds nuw i8, ptr %5, i64 160
  store ptr %find_rms.sink, ptr %42, align 8, !tbaa !75
  %43 = getelementptr inbounds nuw i8, ptr %5, i64 128
  %44 = load double, ptr %43, align 8, !tbaa !86
  %45 = fcmp nsz ogt double %44, 0.000000e+00
  br i1 %45, label %46, label %68

46:                                               ; preds = %41
  %47 = load i64, ptr %9, align 8
  %.sroa.0.0.extract.trunc.i = trunc i64 %47 to i32
  %.sroa.2.0.extract.shift.i = lshr i64 %47, 32
  %.sroa.2.0.extract.trunc.i = trunc nuw i64 %.sroa.2.0.extract.shift.i to i32
  %48 = sitofp i32 %.sroa.0.0.extract.trunc.i to double
  %49 = sitofp i32 %.sroa.2.0.extract.trunc.i to double
  %50 = fdiv nsz double %48, %49
  %51 = fmul nsz double %44, %50
  %52 = fcmp nsz ogt double %51, 1.000000e+00
  %53 = select i1 %52, double %51, double 1.000000e+00
  %54 = fptosi double %53 to i32
  %55 = getelementptr inbounds nuw i8, ptr %5, i64 140
  store i32 %54, ptr %55, align 4, !tbaa !89
  %56 = load i32, ptr %17, align 4, !tbaa !71
  %57 = mul nsw i32 %56, %54
  %58 = sext i32 %57 to i64
  %59 = tail call noalias ptr @av_calloc(i64 noundef %58, i64 noundef 4) #10
  %60 = getelementptr inbounds nuw i8, ptr %5, i64 144
  store ptr %59, ptr %60, align 8, !tbaa !87
  %61 = load i32, ptr %17, align 4, !tbaa !71
  %62 = load i32, ptr %55, align 4, !tbaa !89
  %63 = mul nsw i32 %62, %61
  %64 = sext i32 %63 to i64
  %65 = tail call noalias ptr @av_calloc(i64 noundef %64, i64 noundef 4) #10
  %66 = getelementptr inbounds nuw i8, ptr %5, i64 152
  store ptr %65, ptr %66, align 8, !tbaa !88
  %67 = load ptr, ptr %60, align 8, !tbaa !87
  %.not39 = icmp eq ptr %67, null
  %.not40 = icmp eq ptr %65, null
  %or.cond = select i1 %.not39, i1 true, i1 %.not40
  br i1 %or.cond, label %69, label %68

68:                                               ; preds = %46, %41
  br label %69

69:                                               ; preds = %46, %37, %32, %23, %1, %68
  %.0 = phi i32 [ 0, %68 ], [ -12, %1 ], [ -12, %23 ], [ -12, %32 ], [ -558323010, %37 ], [ -12, %46 ]
  ret i32 %.0
}